; Function Attrs: mustprogress nounwind uwtable
define dso_local void @_ZN4llvm2cl10SubCommand20unregisterSubCommandEv(ptr noundef nonnull align 8 dereferenceable(160) %0) local_unnamed_addr #0 align 2 {
  %2 = load atomic i64, ptr @_ZL12GlobalParser acquire, align 8
  %.not.i.i = icmp eq i64 %2, 0
  br i1 %.not.i.i, label %3, label %_ZN4llvm13ManagedStaticIN12_GLOBAL__N_117CommandLineParserENS_14object_creatorIS2_EENS_14object_deleterIS2_EEEptEv.exit

3:                                                ; preds = %1
  tail call void @_ZNK4llvm17ManagedStaticBase21RegisterManagedStaticEPFPvvEPFvS1_E(ptr noundef nonnull align 8 dereferenceable(24) @_ZL12GlobalParser, ptr noundef nonnull @_ZN4llvm14object_creatorIN12_GLOBAL__N_117CommandLineParserEE4callEv, ptr noundef nonnull @_ZN4llvm14object_deleterIN12_GLOBAL__N_117CommandLineParserEE4callEPv) #25
  br label %_ZN4llvm13ManagedStaticIN12_GLOBAL__N_117CommandLineParserENS_14object_creatorIS2_EENS_14object_deleterIS2_EEEptEv.exit

_ZN4llvm13ManagedStaticIN12_GLOBAL__N_117CommandLineParserENS_14object_creatorIS2_EENS_14object_deleterIS2_EEEptEv.exit: ; preds = %1, %3
  %4 = load atomic i64, ptr @_ZL12GlobalParser monotonic, align 8
  %.0.i2.i.i = inttoptr i64 %4 to ptr
  %5 = getelementptr inbounds nuw i8, ptr %.0.i2.i.i, i64 280
  %6 = getelementptr inbounds i8, ptr %.0.i2.i.i, i64 288
  %7 = load ptr, ptr %6, align 8
  %8 = load ptr, ptr %5, align 8
  %9 = icmp eq ptr %7, %8
  br i1 %9, label %10, label %24

10:                                               ; preds = %_ZN4llvm13ManagedStaticIN12_GLOBAL__N_117CommandLineParserENS_14object_creatorIS2_EENS_14object_deleterIS2_EEEptEv.exit
  %11 = getelementptr inbounds i8, ptr %.0.i2.i.i, i64 300
  %12 = load i32, ptr %11, align 4
  %13 = zext i32 %12 to i64
  %14 = getelementptr inbounds ptr, ptr %8, i64 %13
  %.not1315.i.i.i = icmp eq i32 %12, 0
  br i1 %.not1315.i.i.i, label %_ZN12_GLOBAL__N_117CommandLineParser20unregisterSubCommandEPN4llvm2cl10SubCommandE.exit, label %.lr.ph.i.i.i

.lr.ph.i.i.i:                                     ; preds = %10, %22
  %.01116.i.i.i = phi ptr [ %23, %22 ], [ %8, %10 ]
  %15 = load ptr, ptr %.01116.i.i.i, align 8
  %16 = icmp eq ptr %15, %0
  br i1 %16, label %17, label %22

17:                                               ; preds = %.lr.ph.i.i.i
  %18 = add i32 %12, -1
  store i32 %18, ptr %11, align 4
  %19 = zext i32 %18 to i64
  %20 = getelementptr inbounds ptr, ptr %8, i64 %19
  %21 = load ptr, ptr %20, align 8
  store ptr %21, ptr %.01116.i.i.i, align 8
  br label %_ZN12_GLOBAL__N_117CommandLineParser20unregisterSubCommandEPN4llvm2cl10SubCommandE.exit

22:                                               ; preds = %.lr.ph.i.i.i
  %23 = getelementptr inbounds i8, ptr %.01116.i.i.i, i64 8
  %.not13.i.i.i = icmp eq ptr %23, %14
  br i1 %.not13.i.i.i, label %_ZN12_GLOBAL__N_117CommandLineParser20unregisterSubCommandEPN4llvm2cl10SubCommandE.exit, label %.lr.ph.i.i.i, !llvm.loop !64

24:                                               ; preds = %_ZN4llvm13ManagedStaticIN12_GLOBAL__N_117CommandLineParserENS_14object_creatorIS2_EENS_14object_deleterIS2_EEEptEv.exit
  %25 = tail call noundef ptr @_ZNK4llvm19SmallPtrSetImplBase6doFindEPKv(ptr noundef nonnull align 8 dereferenceable(28) %5, ptr noundef nonnull %0) #25
  %.not.i.i.i = icmp eq ptr %25, null
  br i1 %.not.i.i.i, label %_ZN12_GLOBAL__N_117CommandLineParser20unregisterSubCommandEPN4llvm2cl10SubCommandE.exit, label %26

26:                                               ; preds = %24
  store ptr inttoptr (i64 -2 to ptr), ptr %25, align 8
  %27 = getelementptr inbounds i8, ptr %.0.i2.i.i, i64 304
  %28 = load i32, ptr %27, align 8
  %29 = add i32 %28, 1
  store i32 %29, ptr %27, align 8
  br label %_ZN12_GLOBAL__N_117CommandLineParser20unregisterSubCommandEPN4llvm2cl10SubCommandE.exit

_ZN12_GLOBAL__N_117CommandLineParser20unregisterSubCommandEPN4llvm2cl10SubCommandE.exit: ; preds = %22, %10, %17, %24, %26
  ret void
}